; Function Attrs: nounwind sspstrong uwtable
define internal fastcc void @sym_check_asciionly(i64 noundef %0, i1 noundef zeroext %1) unnamed_addr #0 {
  %3 = tail call ptr @rb_enc_get(i64 noundef %0) #19
  %4 = getelementptr i8, ptr %3, i64 20
  %.val.i = load i32, ptr %4, align 4, !tbaa !40
  %.not.i = icmp eq i32 %.val.i, 1
  br i1 %.not.i, label %rb_enc_asciicompat.exit, label %rb_enc_asciicompat.exit.thread

rb_enc_asciicompat.exit:                          ; preds = %2
  %5 = tail call i32 @rb_enc_dummy_p(ptr noundef nonnull readonly %3) #21
  %.not3.i = icmp eq i32 %5, 0
  br i1 %.not3.i, label %6, label %rb_enc_asciicompat.exit.thread

6:                                                ; preds = %rb_enc_asciicompat.exit
  %7 = tail call i32 @rb_enc_str_coderange(i64 noundef %0) #19
  %cond = icmp eq i32 %7, 3145728
  br i1 %cond, label %8, label %rb_enc_asciicompat.exit.thread

8:                                                ; preds = %6
  br i1 %1, label %9, label %19

9:                                                ; preds = %8
  %10 = inttoptr i64 %0 to ptr
  %11 = load i64, ptr %10, align 8, !tbaa !26, !noalias !59
  %12 = and i64 %11, 8192
  %.not.i.i = icmp eq i64 %12, 0
  %13 = getelementptr inbounds nuw i8, ptr %10, i64 24
  br i1 %.not.i.i, label %RSTRING_PTR.exit, label %14

14:                                               ; preds = %9
  %.sroa.2.0.copyload.i = load ptr, ptr %13, align 8
  br label %RSTRING_PTR.exit

RSTRING_PTR.exit:                                 ; preds = %9, %14
  %.sroa.2.0.i = phi ptr [ %.sroa.2.0.copyload.i, %14 ], [ %13, %9 ]
  %15 = getelementptr inbounds nuw i8, ptr %10, i64 16
  %16 = load i64, ptr %15, align 8, !tbaa !35
  %17 = tail call ptr @rb_enc_get(i64 noundef %0) #19
  %18 = tail call i64 @rb_enc_str_new(ptr noundef %.sroa.2.0.i, i64 noundef %16, ptr noundef %17) #19
  br label %19

19:                                               ; preds = %RSTRING_PTR.exit, %8
  %.09 = phi i64 [ %18, %RSTRING_PTR.exit ], [ %0, %8 ]
  %20 = load i64, ptr @rb_eEncodingError, align 8, !tbaa !32
  %21 = tail call ptr @rb_enc_get(i64 noundef %.09) #19
  %22 = getelementptr i8, ptr %21, i64 8
  %.val = load ptr, ptr %22, align 8, !tbaa !43
  tail call void (i64, ptr, ...) @rb_raise(i64 noundef %20, ptr noundef nonnull @.str.110, ptr noundef %.val, i64 noundef %.09) #20
  unreachable

rb_enc_asciicompat.exit.thread:                   ; preds = %6, %2, %rb_enc_asciicompat.exit
  ret void
}